target datalayout = "e-m:e-p270:32:32-p271:32:32-p272:64:64-i64:64-i128:128-f80:128-n8:16:32:64-S128"
target triple = "x86_64-unknown-linux-gnu"

%"class.node::inspector::protocol::span" = type { ptr, i64 }
%"class.node::inspector::protocol::cbor::CBORTokenizer" = type { %"class.node::inspector::protocol::span", i32, %"struct.node::inspector::protocol::Status", i64, i32, i64 }
%"struct.node::inspector::protocol::Status" = type { i32, i64 }

; Function Attrs: mustprogress nounwind uwtable
define dso_local { i32, i64 } @_ZNK4node9inspector8protocol4cbor13CBORTokenizer6StatusEv(ptr noundef nonnull align 8 dereferenceable(64) %this) #0 align 2 {
entry:
  %retval = alloca %"struct.node::inspector::protocol::Status", align 8
  %this.addr = alloca ptr, align 8
  store ptr %this, ptr %this.addr, align 8
  %this1 = load ptr, ptr %this.addr, align 8
  %status_ = getelementptr inbounds %"class.node::inspector::protocol::cbor::CBORTokenizer", ptr %this1, i32 0, i32 2
  call void @llvm.memcpy.p0.p0.i64(ptr align 8 %retval, ptr align 8 %status_, i64 16, i1 false)
  %0 = load { i32, i64 }, ptr %retval, align 8
  ret { i32, i64 } %0
}