; Function Attrs: mustprogress nofree norecurse nosync nounwind willreturn memory(argmem: read) uwtable
define dso_local { i32, i64 } @_ZNK4node9inspector8protocol4cbor13CBORTokenizer6StatusEv(ptr nocapture noundef nonnull readonly align 8 dereferenceable(64) %this) local_unnamed_addr #4 align 2 {
entry:
  %status_ = getelementptr inbounds i8, ptr %this, i64 24
  %retval.sroa.0.0.copyload = load i32, ptr %status_, align 8
  %retval.sroa.21.0.status_.sroa_idx = getelementptr inbounds i8, ptr %this, i64 32
  %retval.sroa.21.0.copyload = load i64, ptr %retval.sroa.21.0.status_.sroa_idx, align 8
  %.fca.0.insert = insertvalue { i32, i64 } poison, i32 %retval.sroa.0.0.copyload, 0
  %.fca.1.insert = insertvalue { i32, i64 } %.fca.0.insert, i64 %retval.sroa.21.0.copyload, 1
  ret { i32, i64 } %.fca.1.insert
}